; Function Attrs: mustprogress uwtable
define hidden void @_ZN6Assimp14ExportSceneX3DEPKcPNS_8IOSystemEPK7aiScenePKNS_16ExportPropertiesE(ptr noundef %0, ptr noundef %1, ptr noundef %2, ptr noundef readnone captures(none) %3) local_unnamed_addr #0 personality ptr @__gxx_personality_v0 {
  %5 = alloca %"class.Assimp::X3DExporter", align 8
  call void @llvm.lifetime.start.p0(i64 144, ptr nonnull %5) #27
  call void @_ZN6Assimp11X3DExporterC2EPKcPNS_8IOSystemEPK7aiScenePKNS_16ExportPropertiesE(ptr noundef nonnull align 8 dereferenceable(144) %5, ptr noundef %0, ptr noundef %1, ptr noundef %2, ptr poison)
  %6 = getelementptr inbounds nuw i8, ptr %5, i64 112
  %7 = load ptr, ptr %6, align 8
  %8 = getelementptr inbounds nuw i8, ptr %5, i64 128
  %9 = icmp eq ptr %7, %8
  br i1 %9, label %_ZNKSt7__cxx1112basic_stringIcSt11char_traitsIcESaIcEE11_M_is_localEv.exit.thread.i.i.i, label %_ZNKSt7__cxx1112basic_stringIcSt11char_traitsIcESaIcEE11_M_is_localEv.exit.i.i.i

_ZNKSt7__cxx1112basic_stringIcSt11char_traitsIcESaIcEE11_M_is_localEv.exit.thread.i.i.i: ; preds = %4
  %10 = getelementptr inbounds nuw i8, ptr %5, i64 120
  %11 = load i64, ptr %10, align 8
  %12 = icmp ult i64 %11, 16
  call void @llvm.assume(i1 %12)
  br label %_ZNSt7__cxx1112basic_stringIcSt11char_traitsIcESaIcEED2Ev.exit.i

_ZNKSt7__cxx1112basic_stringIcSt11char_traitsIcESaIcEE11_M_is_localEv.exit.i.i.i: ; preds = %4
  %13 = load i64, ptr %8, align 8
  %14 = add i64 %13, 1
  call void @_ZdlPvm(ptr noundef %7, i64 noundef %14) #28
  br label %_ZNSt7__cxx1112basic_stringIcSt11char_traitsIcESaIcEED2Ev.exit.i

_ZNSt7__cxx1112basic_stringIcSt11char_traitsIcESaIcEED2Ev.exit.i: ; preds = %_ZNKSt7__cxx1112basic_stringIcSt11char_traitsIcESaIcEE11_M_is_localEv.exit.i.i.i, %_ZNKSt7__cxx1112basic_stringIcSt11char_traitsIcESaIcEE11_M_is_localEv.exit.thread.i.i.i
  %15 = getelementptr inbounds nuw i8, ptr %5, i64 64
  %16 = getelementptr inbounds nuw i8, ptr %5, i64 80
  %17 = load ptr, ptr %16, align 8
  invoke void @_ZNSt8_Rb_treeImSt4pairIKmNSt7__cxx1112basic_stringIcSt11char_traitsIcESaIcEEEESt10_Select1stIS8_ESt4lessImESaIS8_EE8_M_eraseEPSt13_Rb_tree_nodeIS8_E(ptr noundef nonnull align 8 dereferenceable(48) %15, ptr noundef %17)
          to label %_ZNSt3mapImNSt7__cxx1112basic_stringIcSt11char_traitsIcESaIcEEESt4lessImESaISt4pairIKmS5_EEED2Ev.exit.i unwind label %18

18:                                               ; preds = %_ZNSt7__cxx1112basic_stringIcSt11char_traitsIcESaIcEED2Ev.exit.i
  %19 = landingpad { ptr, i32 }
          catch ptr null
  %20 = extractvalue { ptr, i32 } %19, 0
  call void @__clang_call_terminate(ptr %20) #29
  unreachable

_ZNSt3mapImNSt7__cxx1112basic_stringIcSt11char_traitsIcESaIcEEESt4lessImESaISt4pairIKmS5_EEED2Ev.exit.i: ; preds = %_ZNSt7__cxx1112basic_stringIcSt11char_traitsIcESaIcEED2Ev.exit.i
  %21 = getelementptr inbounds nuw i8, ptr %5, i64 16
  %22 = getelementptr inbounds nuw i8, ptr %5, i64 32
  %23 = load ptr, ptr %22, align 8
  invoke void @_ZNSt8_Rb_treeImSt4pairIKmNSt7__cxx1112basic_stringIcSt11char_traitsIcESaIcEEEESt10_Select1stIS8_ESt4lessImESaIS8_EE8_M_eraseEPSt13_Rb_tree_nodeIS8_E(ptr noundef nonnull align 8 dereferenceable(48) %21, ptr noundef %23)
          to label %_ZN6Assimp11X3DExporterD2Ev.exit unwind label %24

24:                                               ; preds = %_ZNSt3mapImNSt7__cxx1112basic_stringIcSt11char_traitsIcESaIcEEESt4lessImESaISt4pairIKmS5_EEED2Ev.exit.i
  %25 = landingpad { ptr, i32 }
          catch ptr null
  %26 = extractvalue { ptr, i32 } %25, 0
  call void @__clang_call_terminate(ptr %26) #29
  unreachable

_ZN6Assimp11X3DExporterD2Ev.exit:                 ; preds = %_ZNSt3mapImNSt7__cxx1112basic_stringIcSt11char_traitsIcESaIcEEESt4lessImESaISt4pairIKmS5_EEED2Ev.exit.i
  call void @llvm.lifetime.end.p0(i64 144, ptr nonnull %5) #27
  ret void
}